target datalayout = "e-m:e-p270:32:32-p271:32:32-p272:64:64-i64:64-i128:128-f80:128-n8:16:32:64-S128"
target triple = "x86_64-pc-linux-gnu"

%struct._grpc_gcp_RpcProtocolVersions_Version = type { i32, i32 }

; Function Attrs: mustprogress nounwind uwtable
define noundef i32 @_ZN9grpc_core8internal37grpc_gcp_rpc_protocol_version_compareEPK37_grpc_gcp_RpcProtocolVersions_VersionS3_(ptr noundef %0, ptr noundef %1) #2 {
  %3 = alloca i32, align 4
  %4 = alloca ptr, align 8
  %5 = alloca ptr, align 8
  store ptr %0, ptr %4, align 8, !tbaa !43
  store ptr %1, ptr %5, align 8, !tbaa !43
  %6 = load ptr, ptr %4, align 8, !tbaa !43
  %7 = getelementptr inbounds nuw %struct._grpc_gcp_RpcProtocolVersions_Version, ptr %6, i32 0, i32 0
  %8 = load i32, ptr %7, align 4, !tbaa !45
  %9 = load ptr, ptr %5, align 8, !tbaa !43
  %10 = getelementptr inbounds nuw %struct._grpc_gcp_RpcProtocolVersions_Version, ptr %9, i32 0, i32 0
  %11 = load i32, ptr %10, align 4, !tbaa !45
  %12 = icmp ugt i32 %8, %11
  br i1 %12, label %29, label %13

13:                                               ; preds = %2
  %14 = load ptr, ptr %4, align 8, !tbaa !43
  %15 = getelementptr inbounds nuw %struct._grpc_gcp_RpcProtocolVersions_Version, ptr %14, i32 0, i32 0
  %16 = load i32, ptr %15, align 4, !tbaa !45
  %17 = load ptr, ptr %5, align 8, !tbaa !43
  %18 = getelementptr inbounds nuw %struct._grpc_gcp_RpcProtocolVersions_Version, ptr %17, i32 0, i32 0
  %19 = load i32, ptr %18, align 4, !tbaa !45
  %20 = icmp eq i32 %16, %19
  br i1 %20, label %21, label %30

21:                                               ; preds = %13
  %22 = load ptr, ptr %4, align 8, !tbaa !43
  %23 = getelementptr inbounds nuw %struct._grpc_gcp_RpcProtocolVersions_Version, ptr %22, i32 0, i32 1
  %24 = load i32, ptr %23, align 4, !tbaa !46
  %25 = load ptr, ptr %5, align 8, !tbaa !43
  %26 = getelementptr inbounds nuw %struct._grpc_gcp_RpcProtocolVersions_Version, ptr %25, i32 0, i32 1
  %27 = load i32, ptr %26, align 4, !tbaa !46
  %28 = icmp ugt i32 %24, %27
  br i1 %28, label %29, label %30

29:                                               ; preds = %21, %2
  store i32 1, ptr %3, align 4
  br label %56

30:                                               ; preds = %21, %13
  %31 = load ptr, ptr %4, align 8, !tbaa !43
  %32 = getelementptr inbounds nuw %struct._grpc_gcp_RpcProtocolVersions_Version, ptr %31, i32 0, i32 0
  %33 = load i32, ptr %32, align 4, !tbaa !45
  %34 = load ptr, ptr %5, align 8, !tbaa !43
  %35 = getelementptr inbounds nuw %struct._grpc_gcp_RpcProtocolVersions_Version, ptr %34, i32 0, i32 0
  %36 = load i32, ptr %35, align 4, !tbaa !45
  %37 = icmp ult i32 %33, %36
  br i1 %37, label %54, label %38

38:                                               ; preds = %30
  %39 = load ptr, ptr %4, align 8, !tbaa !43
  %40 = getelementptr inbounds nuw %struct._grpc_gcp_RpcProtocolVersions_Version, ptr %39, i32 0, i32 0
  %41 = load i32, ptr %40, align 4, !tbaa !45
  %42 = load ptr, ptr %5, align 8, !tbaa !43
  %43 = getelementptr inbounds nuw %struct._grpc_gcp_RpcProtocolVersions_Version, ptr %42, i32 0, i32 0
  %44 = load i32, ptr %43, align 4, !tbaa !45
  %45 = icmp eq i32 %41, %44
  br i1 %45, label %46, label %55

46:                                               ; preds = %38
  %47 = load ptr, ptr %4, align 8, !tbaa !43
  %48 = getelementptr inbounds nuw %struct._grpc_gcp_RpcProtocolVersions_Version, ptr %47, i32 0, i32 1
  %49 = load i32, ptr %48, align 4, !tbaa !46
  %50 = load ptr, ptr %5, align 8, !tbaa !43
  %51 = getelementptr inbounds nuw %struct._grpc_gcp_RpcProtocolVersions_Version, ptr %50, i32 0, i32 1
  %52 = load i32, ptr %51, align 4, !tbaa !46
  %53 = icmp ult i32 %49, %52
  br i1 %53, label %54, label %55

54:                                               ; preds = %46, %30
  store i32 -1, ptr %3, align 4
  br label %56

55:                                               ; preds = %46, %38
  store i32 0, ptr %3, align 4
  br label %56

56:                                               ; preds = %55, %54, %29
  %57 = load i32, ptr %3, align 4
  ret i32 %57
}