; Function Attrs: mustprogress nofree norecurse nosync nounwind willreturn memory(argmem: read) uwtable
define noundef range(i32 -1, 2) i32 @_ZN9grpc_core8internal37grpc_gcp_rpc_protocol_version_compareEPK37_grpc_gcp_RpcProtocolVersions_VersionS3_(ptr noundef readonly captures(none) %0, ptr noundef readonly captures(none) %1) local_unnamed_addr #6 {
  %3 = load i32, ptr %0, align 4, !tbaa !32
  %4 = load i32, ptr %1, align 4, !tbaa !32
  %5 = icmp ugt i32 %3, %4
  br i1 %5, label %17, label %6

6:                                                ; preds = %2
  %7 = icmp eq i32 %3, %4
  br i1 %7, label %8, label %.thread

8:                                                ; preds = %6
  %9 = getelementptr inbounds nuw i8, ptr %0, i64 4
  %10 = load i32, ptr %9, align 4, !tbaa !33
  %11 = getelementptr inbounds nuw i8, ptr %1, i64 4
  %12 = load i32, ptr %11, align 4, !tbaa !33
  %13 = icmp ugt i32 %10, %12
  br i1 %13, label %17, label %15

.thread:                                          ; preds = %6
  %14 = icmp ult i32 %3, %4
  br i1 %14, label %17, label %.thread16

15:                                               ; preds = %8
  %16 = icmp ult i32 %10, %12
  br i1 %16, label %17, label %.thread16

.thread16:                                        ; preds = %.thread, %15
  br label %17

17:                                               ; preds = %.thread, %15, %2, %8, %.thread16
  %.0 = phi i32 [ 0, %.thread16 ], [ 1, %8 ], [ 1, %2 ], [ -1, %15 ], [ -1, %.thread ]
  ret i32 %.0
}